; Function Attrs: mustprogress uwtable
define i32 @proj_errno(ptr noundef %0) local_unnamed_addr #1 {
  %2 = tail call noundef ptr @_Z10pj_get_ctxP8PJconsts(ptr noundef %0)
  %3 = icmp eq ptr %2, null
  br i1 %3, label %4, label %proj_context_errno.exit

4:                                                ; preds = %1
  %5 = tail call noundef ptr @_Z18pj_get_default_ctxv()
  br label %proj_context_errno.exit

proj_context_errno.exit:                          ; preds = %1, %4
  %.0.i = phi ptr [ %5, %4 ], [ %2, %1 ]
  %6 = getelementptr inbounds i8, ptr %.0.i, i64 32
  %7 = load i32, ptr %6, align 8
  ret i32 %7
}